ARM GAS  /tmp/cctY73bu.s 			page 1


   1              		.cpu cortex-m7
   2              		.arch armv7e-m
   3              		.fpu fpv5-d16
   4              		.eabi_attribute 28, 1
   5              		.eabi_attribute 20, 1
   6              		.eabi_attribute 21, 1
   7              		.eabi_attribute 23, 3
   8              		.eabi_attribute 24, 1
   9              		.eabi_attribute 25, 1
  10              		.eabi_attribute 26, 1
  11              		.eabi_attribute 30, 1
  12              		.eabi_attribute 34, 1
  13              		.eabi_attribute 18, 4
  14              		.file	"app_threadx.c"
  15              		.text
  16              	.Ltext0:
  17              		.cfi_sections	.debug_frame
  18              		.file 1 "Src/app_threadx.c"
  19              		.section	.rodata.MainThread_Entry.str1.4,"aMS",%progbits,1
  20              		.align	2
  21              	.LC0:
  22 0000 48656C6C 		.ascii	"Hello from MainThread, ThreadOne and ThreadTwo term"
  22      6F206672 
  22      6F6D204D 
  22      61696E54 
  22      68726561 
  23 0033 696E6174 		.ascii	"inated!\000"
  23      65642100 
  24              		.section	.text.MainThread_Entry,"ax",%progbits
  25              		.align	1
  26              		.global	MainThread_Entry
  27              		.syntax unified
  28              		.thumb
  29              		.thumb_func
  31              	MainThread_Entry:
  32              	.LVL0:
  33              	.LFB153:
   1:Src/app_threadx.c **** /* USER CODE BEGIN Header */
   2:Src/app_threadx.c **** /**
   3:Src/app_threadx.c ****   ******************************************************************************
   4:Src/app_threadx.c ****   * @file    app_threadx.c
   5:Src/app_threadx.c ****   * @author  MCD Application Team
   6:Src/app_threadx.c ****   * @brief   ThreadX applicative file
   7:Src/app_threadx.c ****   ******************************************************************************
   8:Src/app_threadx.c ****   * @attention
   9:Src/app_threadx.c ****   *
  10:Src/app_threadx.c ****   * Copyright (c) 2020-2021 STMicroelectronics.
  11:Src/app_threadx.c ****   * All rights reserved.
  12:Src/app_threadx.c ****   *
  13:Src/app_threadx.c ****   * This software is licensed under terms that can be found in the LICENSE file
  14:Src/app_threadx.c ****   * in the root directory of this software component.
  15:Src/app_threadx.c ****   * If no LICENSE file comes with this software, it is provided AS-IS.
  16:Src/app_threadx.c ****   *
  17:Src/app_threadx.c ****   ******************************************************************************
  18:Src/app_threadx.c ****   */
  19:Src/app_threadx.c **** /* USER CODE END Header */
  20:Src/app_threadx.c **** 
ARM GAS  /tmp/cctY73bu.s 			page 2


  21:Src/app_threadx.c **** /* Includes ------------------------------------------------------------------*/
  22:Src/app_threadx.c **** #include "app_threadx.h"
  23:Src/app_threadx.c **** 
  24:Src/app_threadx.c **** /* Private includes ----------------------------------------------------------*/
  25:Src/app_threadx.c **** /* USER CODE BEGIN Includes */
  26:Src/app_threadx.c **** #include "main.h"
  27:Src/app_threadx.c **** /* USER CODE END Includes */
  28:Src/app_threadx.c **** 
  29:Src/app_threadx.c **** /* Private typedef -----------------------------------------------------------*/
  30:Src/app_threadx.c **** /* USER CODE BEGIN PTD */
  31:Src/app_threadx.c **** /* USER CODE END PTD */
  32:Src/app_threadx.c **** 
  33:Src/app_threadx.c **** /* Private define ------------------------------------------------------------*/
  34:Src/app_threadx.c **** /* USER CODE BEGIN PD */
  35:Src/app_threadx.c **** /* USER CODE END PD */
  36:Src/app_threadx.c **** 
  37:Src/app_threadx.c **** /* Private macro -------------------------------------------------------------*/
  38:Src/app_threadx.c **** /* USER CODE BEGIN PM */
  39:Src/app_threadx.c **** /* USER CODE END PM */
  40:Src/app_threadx.c **** 
  41:Src/app_threadx.c **** /* Private variables ---------------------------------------------------------*/
  42:Src/app_threadx.c **** TX_THREAD tx_app_thread;
  43:Src/app_threadx.c **** /* USER CODE BEGIN PV */
  44:Src/app_threadx.c **** TX_THREAD ThreadOne;
  45:Src/app_threadx.c **** TX_THREAD ThreadTwo;
  46:Src/app_threadx.c **** TX_EVENT_FLAGS_GROUP EventFlag;
  47:Src/app_threadx.c **** /* USER CODE END PV */
  48:Src/app_threadx.c **** 
  49:Src/app_threadx.c **** /* Private function prototypes -----------------------------------------------*/
  50:Src/app_threadx.c **** /* USER CODE BEGIN PFP */
  51:Src/app_threadx.c **** void ThreadOne_Entry(ULONG thread_input);
  52:Src/app_threadx.c **** void ThreadTwo_Entry(ULONG thread_input);
  53:Src/app_threadx.c **** void App_Delay(uint32_t Delay);
  54:Src/app_threadx.c **** /* USER CODE END PFP */
  55:Src/app_threadx.c **** 
  56:Src/app_threadx.c **** /**
  57:Src/app_threadx.c ****   * @brief  Application ThreadX Initialization.
  58:Src/app_threadx.c ****   * @param memory_ptr: memory pointer
  59:Src/app_threadx.c ****   * @retval int
  60:Src/app_threadx.c ****   */
  61:Src/app_threadx.c **** UINT App_ThreadX_Init(VOID *memory_ptr)
  62:Src/app_threadx.c **** {
  63:Src/app_threadx.c ****   UINT ret = TX_SUCCESS;
  64:Src/app_threadx.c ****   TX_BYTE_POOL *byte_pool = (TX_BYTE_POOL*)memory_ptr;
  65:Src/app_threadx.c ****   /* USER CODE BEGIN App_ThreadX_MEM_POOL */
  66:Src/app_threadx.c **** 
  67:Src/app_threadx.c ****   /* USER CODE END App_ThreadX_MEM_POOL */
  68:Src/app_threadx.c ****   CHAR *pointer;
  69:Src/app_threadx.c **** 
  70:Src/app_threadx.c ****   /* Allocate the stack for Main Thread  */
  71:Src/app_threadx.c ****   if (tx_byte_allocate(byte_pool, (VOID**) &pointer,
  72:Src/app_threadx.c ****                        TX_APP_STACK_SIZE, TX_NO_WAIT) != TX_SUCCESS)
  73:Src/app_threadx.c ****   {
  74:Src/app_threadx.c ****     return TX_POOL_ERROR;
  75:Src/app_threadx.c ****   }
  76:Src/app_threadx.c ****   /* Create Main Thread.  */
  77:Src/app_threadx.c ****   if (tx_thread_create(&tx_app_thread, "Main Thread", MainThread_Entry, 0, pointer,
ARM GAS  /tmp/cctY73bu.s 			page 3


  78:Src/app_threadx.c ****                        TX_APP_STACK_SIZE, TX_APP_THREAD_PRIO, TX_APP_THREAD_PREEMPTION_THRESHOLD,
  79:Src/app_threadx.c ****                        TX_APP_THREAD_TIME_SLICE, TX_APP_THREAD_AUTO_START) != TX_SUCCESS)
  80:Src/app_threadx.c ****   {
  81:Src/app_threadx.c ****     return TX_THREAD_ERROR;
  82:Src/app_threadx.c ****   }
  83:Src/app_threadx.c **** 
  84:Src/app_threadx.c ****   /* USER CODE BEGIN App_ThreadX_Init */
  85:Src/app_threadx.c ****   /* Allocate the stack for ThreadOne.  */
  86:Src/app_threadx.c ****   if (tx_byte_allocate(byte_pool, (VOID **) &pointer,
  87:Src/app_threadx.c ****                        TX_APP_STACK_SIZE, TX_NO_WAIT) != TX_SUCCESS)
  88:Src/app_threadx.c ****   {
  89:Src/app_threadx.c ****     return TX_POOL_ERROR;
  90:Src/app_threadx.c ****   }
  91:Src/app_threadx.c **** 
  92:Src/app_threadx.c ****   /* Create ThreadOne.  */
  93:Src/app_threadx.c ****   if (tx_thread_create(&ThreadOne, "Thread One", ThreadOne_Entry, 0, pointer,
  94:Src/app_threadx.c ****                        TX_APP_STACK_SIZE, THREAD_ONE_PRIO, THREAD_ONE_PREEMPTION_THRESHOLD,
  95:Src/app_threadx.c ****                        TX_APP_THREAD_TIME_SLICE, TX_APP_THREAD_AUTO_START) != TX_SUCCESS)
  96:Src/app_threadx.c ****   {
  97:Src/app_threadx.c ****     return TX_THREAD_ERROR;
  98:Src/app_threadx.c ****   }
  99:Src/app_threadx.c **** 
 100:Src/app_threadx.c ****   /* Allocate the stack for ThreadTwo.  */
 101:Src/app_threadx.c ****   if (tx_byte_allocate(byte_pool, (VOID **) &pointer,
 102:Src/app_threadx.c ****                        TX_APP_STACK_SIZE, TX_NO_WAIT) != TX_SUCCESS)
 103:Src/app_threadx.c ****   {
 104:Src/app_threadx.c ****     return TX_POOL_ERROR;
 105:Src/app_threadx.c ****   }
 106:Src/app_threadx.c **** 
 107:Src/app_threadx.c ****   /* Create ThreadTwo.  */
 108:Src/app_threadx.c ****   if (tx_thread_create(&ThreadTwo, "Thread Two", ThreadTwo_Entry, 0, pointer,
 109:Src/app_threadx.c ****                        TX_APP_STACK_SIZE, THREAD_TWO_PRIO, THREAD_TWO_PREEMPTION_THRESHOLD,
 110:Src/app_threadx.c ****                        TX_APP_THREAD_TIME_SLICE, TX_APP_THREAD_AUTO_START) != TX_SUCCESS)
 111:Src/app_threadx.c ****   {
 112:Src/app_threadx.c ****     return TX_THREAD_ERROR;
 113:Src/app_threadx.c ****   }
 114:Src/app_threadx.c **** 
 115:Src/app_threadx.c ****   /* Create the event flags group.  */
 116:Src/app_threadx.c ****   if (tx_event_flags_create(&EventFlag, "Event Flag") != TX_SUCCESS)
 117:Src/app_threadx.c ****   {
 118:Src/app_threadx.c ****     return TX_GROUP_ERROR;
 119:Src/app_threadx.c ****   }
 120:Src/app_threadx.c ****   /* USER CODE END App_ThreadX_Init */
 121:Src/app_threadx.c **** 
 122:Src/app_threadx.c ****   return ret;
 123:Src/app_threadx.c **** }
 124:Src/app_threadx.c **** /**
 125:Src/app_threadx.c ****   * @brief  Function implementing the MainThread_Entry thread.
 126:Src/app_threadx.c ****   * @param  thread_input: Hardcoded to 0.
 127:Src/app_threadx.c ****   * @retval None
 128:Src/app_threadx.c ****   */
 129:Src/app_threadx.c **** void MainThread_Entry(ULONG thread_input)
 130:Src/app_threadx.c **** {
  34              		.loc 1 130 1 view -0
  35              		.cfi_startproc
  36              		@ args = 0, pretend = 0, frame = 16
  37              		@ frame_needed = 0, uses_anonymous_args = 0
ARM GAS  /tmp/cctY73bu.s 			page 4


  38              		.loc 1 130 1 is_stmt 0 view .LVU1
  39 0000 30B5     		push	{r4, r5, lr}
  40              		.cfi_def_cfa_offset 12
  41              		.cfi_offset 4, -12
  42              		.cfi_offset 5, -8
  43              		.cfi_offset 14, -4
  44 0002 87B0     		sub	sp, sp, #28
  45              		.cfi_def_cfa_offset 40
 131:Src/app_threadx.c ****   /* USER CODE BEGIN MainThread_Entry */
 132:Src/app_threadx.c ****   UINT old_prio = 0;
  46              		.loc 1 132 3 is_stmt 1 view .LVU2
  47              		.loc 1 132 8 is_stmt 0 view .LVU3
  48 0004 0024     		movs	r4, #0
  49 0006 0594     		str	r4, [sp, #20]
 133:Src/app_threadx.c ****   UINT old_pre_threshold = 0;
  50              		.loc 1 133 3 is_stmt 1 view .LVU4
  51              		.loc 1 133 8 is_stmt 0 view .LVU5
  52 0008 0494     		str	r4, [sp, #16]
 134:Src/app_threadx.c ****   ULONG   actual_flags = 0;
  53              		.loc 1 134 3 is_stmt 1 view .LVU6
  54              		.loc 1 134 11 is_stmt 0 view .LVU7
  55 000a 0394     		str	r4, [sp, #12]
 135:Src/app_threadx.c ****   uint8_t count = 0;
  56              		.loc 1 135 3 is_stmt 1 view .LVU8
  57              	.LVL1:
 136:Src/app_threadx.c ****   (void) thread_input;
  58              		.loc 1 136 3 view .LVU9
 137:Src/app_threadx.c **** 
 138:Src/app_threadx.c ****   while (count < 3)
  59              		.loc 1 138 3 view .LVU10
  60              	.L2:
  61              		.loc 1 138 16 view .LVU11
  62 000c 022C     		cmp	r4, #2
  63 000e 32D8     		bhi	.L9
 139:Src/app_threadx.c ****   {
 140:Src/app_threadx.c ****     count++;
  64              		.loc 1 140 5 view .LVU12
  65              		.loc 1 140 10 is_stmt 0 view .LVU13
  66 0010 0134     		adds	r4, r4, #1
  67              	.LVL2:
  68              		.loc 1 140 10 view .LVU14
  69 0012 E4B2     		uxtb	r4, r4
  70              	.LVL3:
 141:Src/app_threadx.c ****     if (tx_event_flags_get(&EventFlag, THREAD_ONE_EVT, TX_OR_CLEAR,
  71              		.loc 1 141 5 is_stmt 1 view .LVU15
  72              		.loc 1 141 9 is_stmt 0 view .LVU16
  73 0014 4FF0FF33 		mov	r3, #-1
  74 0018 0093     		str	r3, [sp]
  75 001a 03AB     		add	r3, sp, #12
  76 001c 0122     		movs	r2, #1
  77 001e 1146     		mov	r1, r2
  78 0020 1D48     		ldr	r0, .L10
  79 0022 FFF7FEFF 		bl	_txe_event_flags_get
  80              	.LVL4:
  81              		.loc 1 141 8 discriminator 1 view .LVU17
  82 0026 10B1     		cbz	r0, .L3
 142:Src/app_threadx.c ****                            &actual_flags, TX_WAIT_FOREVER) != TX_SUCCESS)
ARM GAS  /tmp/cctY73bu.s 			page 5


 143:Src/app_threadx.c ****     {
 144:Src/app_threadx.c ****       Error_Handler();
  83              		.loc 1 144 7 is_stmt 1 view .LVU18
  84 0028 FFF7FEFF 		bl	Error_Handler
  85              	.LVL5:
  86 002c EEE7     		b	.L2
  87              	.L3:
 145:Src/app_threadx.c ****     }
 146:Src/app_threadx.c ****     else
 147:Src/app_threadx.c ****     {
 148:Src/app_threadx.c ****       /* Update the priority and preemption threshold of ThreadTwo
 149:Src/app_threadx.c ****       to allow the preemption of ThreadOne */
 150:Src/app_threadx.c ****       tx_thread_priority_change(&ThreadTwo, NEW_THREAD_TWO_PRIO, &old_prio);
  88              		.loc 1 150 7 view .LVU19
  89 002e 1B4D     		ldr	r5, .L10+4
  90 0030 05AA     		add	r2, sp, #20
  91 0032 0821     		movs	r1, #8
  92 0034 2846     		mov	r0, r5
  93 0036 FFF7FEFF 		bl	_txe_thread_priority_change
  94              	.LVL6:
 151:Src/app_threadx.c ****       tx_thread_preemption_change(&ThreadTwo, NEW_THREAD_TWO_PREEMPTION_THRESHOLD, &old_pre_thresho
  95              		.loc 1 151 7 view .LVU20
  96 003a 04AA     		add	r2, sp, #16
  97 003c 0821     		movs	r1, #8
  98 003e 2846     		mov	r0, r5
  99 0040 FFF7FEFF 		bl	_txe_thread_preemption_change
 100              	.LVL7:
 152:Src/app_threadx.c **** 
 153:Src/app_threadx.c ****       if (tx_event_flags_get(&EventFlag, THREAD_TWO_EVT, TX_OR_CLEAR,
 101              		.loc 1 153 7 view .LVU21
 102              		.loc 1 153 11 is_stmt 0 view .LVU22
 103 0044 4FF0FF33 		mov	r3, #-1
 104 0048 0093     		str	r3, [sp]
 105 004a 03AB     		add	r3, sp, #12
 106 004c 0122     		movs	r2, #1
 107 004e 0221     		movs	r1, #2
 108 0050 1148     		ldr	r0, .L10
 109 0052 FFF7FEFF 		bl	_txe_event_flags_get
 110              	.LVL8:
 111              		.loc 1 153 10 discriminator 1 view .LVU23
 112 0056 10B1     		cbz	r0, .L5
 154:Src/app_threadx.c ****                              &actual_flags, TX_WAIT_FOREVER) != TX_SUCCESS)
 155:Src/app_threadx.c ****       {
 156:Src/app_threadx.c ****         Error_Handler();
 113              		.loc 1 156 9 is_stmt 1 view .LVU24
 114 0058 FFF7FEFF 		bl	Error_Handler
 115              	.LVL9:
 116 005c D6E7     		b	.L2
 117              	.L5:
 157:Src/app_threadx.c ****       }
 158:Src/app_threadx.c ****       else
 159:Src/app_threadx.c ****       {
 160:Src/app_threadx.c ****         /* Reset the priority and preemption threshold of ThreadTwo */
 161:Src/app_threadx.c ****         tx_thread_priority_change(&ThreadTwo, THREAD_TWO_PRIO, &old_prio);
 118              		.loc 1 161 9 view .LVU25
 119 005e 0F4D     		ldr	r5, .L10+4
 120 0060 05AA     		add	r2, sp, #20
ARM GAS  /tmp/cctY73bu.s 			page 6


 121 0062 0A21     		movs	r1, #10
 122 0064 2846     		mov	r0, r5
 123 0066 FFF7FEFF 		bl	_txe_thread_priority_change
 124              	.LVL10:
 162:Src/app_threadx.c ****         tx_thread_preemption_change(&ThreadTwo, THREAD_TWO_PREEMPTION_THRESHOLD, &old_pre_threshold
 125              		.loc 1 162 9 view .LVU26
 126 006a 04AA     		add	r2, sp, #16
 127 006c 0921     		movs	r1, #9
 128 006e 2846     		mov	r0, r5
 129 0070 FFF7FEFF 		bl	_txe_thread_preemption_change
 130              	.LVL11:
 131 0074 CAE7     		b	.L2
 132              	.L9:
 163:Src/app_threadx.c ****       }
 164:Src/app_threadx.c ****     }
 165:Src/app_threadx.c ****   }
 166:Src/app_threadx.c **** 
 167:Src/app_threadx.c ****   /* Destroy ThreadOne and ThreadTwo */
 168:Src/app_threadx.c ****   tx_thread_terminate(&ThreadOne);
 133              		.loc 1 168 3 view .LVU27
 134 0076 0A48     		ldr	r0, .L10+8
 135 0078 FFF7FEFF 		bl	_txe_thread_terminate
 136              	.LVL12:
 169:Src/app_threadx.c ****   tx_thread_terminate(&ThreadTwo);
 137              		.loc 1 169 3 view .LVU28
 138 007c 0748     		ldr	r0, .L10+4
 139 007e FFF7FEFF 		bl	_txe_thread_terminate
 140              	.LVL13:
 170:Src/app_threadx.c ****   printf("%s\n", "Hello from MainThread, ThreadOne and ThreadTwo terminated!");
 141              		.loc 1 170 3 view .LVU29
 142 0082 0848     		ldr	r0, .L10+12
 143 0084 FFF7FEFF 		bl	puts
 144              	.LVL14:
 145              	.L7:
 171:Src/app_threadx.c **** 
 172:Src/app_threadx.c ****   /* Infinite loop */
 173:Src/app_threadx.c ****   while(1)
 146              		.loc 1 173 3 view .LVU30
 174:Src/app_threadx.c ****   {
 175:Src/app_threadx.c ****     HAL_GPIO_TogglePin(LED1_GPIO_Port, LED1_Pin);
 147              		.loc 1 175 5 view .LVU31
 148 0088 0121     		movs	r1, #1
 149 008a 0748     		ldr	r0, .L10+16
 150 008c FFF7FEFF 		bl	HAL_GPIO_TogglePin
 151              	.LVL15:
 176:Src/app_threadx.c **** 
 177:Src/app_threadx.c ****     /* Thread sleep for 1s */
 178:Src/app_threadx.c ****     tx_thread_sleep(100);
 152              		.loc 1 178 5 discriminator 1 view .LVU32
 153 0090 6420     		movs	r0, #100
 154 0092 FFF7FEFF 		bl	_tx_thread_sleep
 155              	.LVL16:
 173:Src/app_threadx.c ****   {
 156              		.loc 1 173 8 view .LVU33
 157 0096 F7E7     		b	.L7
 158              	.L11:
 159              		.align	2
ARM GAS  /tmp/cctY73bu.s 			page 7


 160              	.L10:
 161 0098 00000000 		.word	EventFlag
 162 009c 00000000 		.word	ThreadTwo
 163 00a0 00000000 		.word	ThreadOne
 164 00a4 00000000 		.word	.LC0
 165 00a8 00040258 		.word	1476527104
 166              		.cfi_endproc
 167              	.LFE153:
 169              		.section	.rodata.App_ThreadX_Init.str1.4,"aMS",%progbits,1
 170              		.align	2
 171              	.LC1:
 172 0000 4D61696E 		.ascii	"Main Thread\000"
 172      20546872 
 172      65616400 
 173              		.align	2
 174              	.LC2:
 175 000c 54687265 		.ascii	"Thread One\000"
 175      6164204F 
 175      6E6500
 176 0017 00       		.align	2
 177              	.LC3:
 178 0018 54687265 		.ascii	"Thread Two\000"
 178      61642054 
 178      776F00
 179 0023 00       		.align	2
 180              	.LC4:
 181 0024 4576656E 		.ascii	"Event Flag\000"
 181      7420466C 
 181      616700
 182              		.section	.text.App_ThreadX_Init,"ax",%progbits
 183              		.align	1
 184              		.global	App_ThreadX_Init
 185              		.syntax unified
 186              		.thumb
 187              		.thumb_func
 189              	App_ThreadX_Init:
 190              	.LVL17:
 191              	.LFB152:
  62:Src/app_threadx.c ****   UINT ret = TX_SUCCESS;
 192              		.loc 1 62 1 view -0
 193              		.cfi_startproc
 194              		@ args = 0, pretend = 0, frame = 8
 195              		@ frame_needed = 0, uses_anonymous_args = 0
  62:Src/app_threadx.c ****   UINT ret = TX_SUCCESS;
 196              		.loc 1 62 1 is_stmt 0 view .LVU35
 197 0000 10B5     		push	{r4, lr}
 198              		.cfi_def_cfa_offset 8
 199              		.cfi_offset 4, -8
 200              		.cfi_offset 14, -4
 201 0002 8AB0     		sub	sp, sp, #40
 202              		.cfi_def_cfa_offset 48
 203 0004 0446     		mov	r4, r0
  63:Src/app_threadx.c ****   TX_BYTE_POOL *byte_pool = (TX_BYTE_POOL*)memory_ptr;
 204              		.loc 1 63 3 is_stmt 1 view .LVU36
 205              	.LVL18:
  64:Src/app_threadx.c ****   /* USER CODE BEGIN App_ThreadX_MEM_POOL */
 206              		.loc 1 64 3 view .LVU37
ARM GAS  /tmp/cctY73bu.s 			page 8


  68:Src/app_threadx.c **** 
 207              		.loc 1 68 3 view .LVU38
  71:Src/app_threadx.c ****                        TX_APP_STACK_SIZE, TX_NO_WAIT) != TX_SUCCESS)
 208              		.loc 1 71 3 view .LVU39
  71:Src/app_threadx.c ****                        TX_APP_STACK_SIZE, TX_NO_WAIT) != TX_SUCCESS)
 209              		.loc 1 71 7 is_stmt 0 view .LVU40
 210 0006 0023     		movs	r3, #0
 211 0008 4FF40072 		mov	r2, #512
 212 000c 09A9     		add	r1, sp, #36
 213 000e FFF7FEFF 		bl	_txe_byte_allocate
 214              	.LVL19:
  71:Src/app_threadx.c ****                        TX_APP_STACK_SIZE, TX_NO_WAIT) != TX_SUCCESS)
 215              		.loc 1 71 6 discriminator 1 view .LVU41
 216 0012 0028     		cmp	r0, #0
 217 0014 56D1     		bne	.L14
  77:Src/app_threadx.c ****                        TX_APP_STACK_SIZE, TX_APP_THREAD_PRIO, TX_APP_THREAD_PREEMPTION_THRESHOLD,
 218              		.loc 1 77 3 is_stmt 1 view .LVU42
  77:Src/app_threadx.c ****                        TX_APP_STACK_SIZE, TX_APP_THREAD_PRIO, TX_APP_THREAD_PREEMPTION_THRESHOLD,
 219              		.loc 1 77 7 is_stmt 0 view .LVU43
 220 0016 B023     		movs	r3, #176
 221 0018 0693     		str	r3, [sp, #24]
 222 001a 0123     		movs	r3, #1
 223 001c 0593     		str	r3, [sp, #20]
 224 001e 0023     		movs	r3, #0
 225 0020 0493     		str	r3, [sp, #16]
 226 0022 0522     		movs	r2, #5
 227 0024 0392     		str	r2, [sp, #12]
 228 0026 0292     		str	r2, [sp, #8]
 229 0028 4FF40072 		mov	r2, #512
 230 002c 0192     		str	r2, [sp, #4]
 231 002e 099A     		ldr	r2, [sp, #36]
 232 0030 0092     		str	r2, [sp]
 233 0032 2B4A     		ldr	r2, .L22
 234 0034 2B49     		ldr	r1, .L22+4
 235 0036 2C48     		ldr	r0, .L22+8
 236 0038 FFF7FEFF 		bl	_txe_thread_create
 237              	.LVL20:
  77:Src/app_threadx.c ****                        TX_APP_STACK_SIZE, TX_APP_THREAD_PRIO, TX_APP_THREAD_PREEMPTION_THRESHOLD,
 238              		.loc 1 77 6 discriminator 1 view .LVU44
 239 003c 0028     		cmp	r0, #0
 240 003e 44D1     		bne	.L15
  86:Src/app_threadx.c ****                        TX_APP_STACK_SIZE, TX_NO_WAIT) != TX_SUCCESS)
 241              		.loc 1 86 3 is_stmt 1 view .LVU45
  86:Src/app_threadx.c ****                        TX_APP_STACK_SIZE, TX_NO_WAIT) != TX_SUCCESS)
 242              		.loc 1 86 7 is_stmt 0 view .LVU46
 243 0040 0023     		movs	r3, #0
 244 0042 4FF40072 		mov	r2, #512
 245 0046 09A9     		add	r1, sp, #36
 246 0048 2046     		mov	r0, r4
 247 004a FFF7FEFF 		bl	_txe_byte_allocate
 248              	.LVL21:
  86:Src/app_threadx.c ****                        TX_APP_STACK_SIZE, TX_NO_WAIT) != TX_SUCCESS)
 249              		.loc 1 86 6 discriminator 1 view .LVU47
 250 004e 0028     		cmp	r0, #0
 251 0050 3DD1     		bne	.L16
  93:Src/app_threadx.c ****                        TX_APP_STACK_SIZE, THREAD_ONE_PRIO, THREAD_ONE_PREEMPTION_THRESHOLD,
 252              		.loc 1 93 3 is_stmt 1 view .LVU48
ARM GAS  /tmp/cctY73bu.s 			page 9


  93:Src/app_threadx.c ****                        TX_APP_STACK_SIZE, THREAD_ONE_PRIO, THREAD_ONE_PREEMPTION_THRESHOLD,
 253              		.loc 1 93 7 is_stmt 0 view .LVU49
 254 0052 B023     		movs	r3, #176
 255 0054 0693     		str	r3, [sp, #24]
 256 0056 0123     		movs	r3, #1
 257 0058 0593     		str	r3, [sp, #20]
 258 005a 0023     		movs	r3, #0
 259 005c 0493     		str	r3, [sp, #16]
 260 005e 0A22     		movs	r2, #10
 261 0060 0392     		str	r2, [sp, #12]
 262 0062 0292     		str	r2, [sp, #8]
 263 0064 4FF40072 		mov	r2, #512
 264 0068 0192     		str	r2, [sp, #4]
 265 006a 099A     		ldr	r2, [sp, #36]
 266 006c 0092     		str	r2, [sp]
 267 006e 1F4A     		ldr	r2, .L22+12
 268 0070 1F49     		ldr	r1, .L22+16
 269 0072 2048     		ldr	r0, .L22+20
 270 0074 FFF7FEFF 		bl	_txe_thread_create
 271              	.LVL22:
  93:Src/app_threadx.c ****                        TX_APP_STACK_SIZE, THREAD_ONE_PRIO, THREAD_ONE_PREEMPTION_THRESHOLD,
 272              		.loc 1 93 6 discriminator 1 view .LVU50
 273 0078 58BB     		cbnz	r0, .L17
 101:Src/app_threadx.c ****                        TX_APP_STACK_SIZE, TX_NO_WAIT) != TX_SUCCESS)
 274              		.loc 1 101 3 is_stmt 1 view .LVU51
 101:Src/app_threadx.c ****                        TX_APP_STACK_SIZE, TX_NO_WAIT) != TX_SUCCESS)
 275              		.loc 1 101 7 is_stmt 0 view .LVU52
 276 007a 0023     		movs	r3, #0
 277 007c 4FF40072 		mov	r2, #512
 278 0080 09A9     		add	r1, sp, #36
 279 0082 2046     		mov	r0, r4
 280 0084 FFF7FEFF 		bl	_txe_byte_allocate
 281              	.LVL23:
 101:Src/app_threadx.c ****                        TX_APP_STACK_SIZE, TX_NO_WAIT) != TX_SUCCESS)
 282              		.loc 1 101 6 discriminator 1 view .LVU53
 283 0088 28BB     		cbnz	r0, .L18
 108:Src/app_threadx.c ****                        TX_APP_STACK_SIZE, THREAD_TWO_PRIO, THREAD_TWO_PREEMPTION_THRESHOLD,
 284              		.loc 1 108 3 is_stmt 1 view .LVU54
 108:Src/app_threadx.c ****                        TX_APP_STACK_SIZE, THREAD_TWO_PRIO, THREAD_TWO_PREEMPTION_THRESHOLD,
 285              		.loc 1 108 7 is_stmt 0 view .LVU55
 286 008a B023     		movs	r3, #176
 287 008c 0693     		str	r3, [sp, #24]
 288 008e 0123     		movs	r3, #1
 289 0090 0593     		str	r3, [sp, #20]
 290 0092 0023     		movs	r3, #0
 291 0094 0493     		str	r3, [sp, #16]
 292 0096 0922     		movs	r2, #9
 293 0098 0392     		str	r2, [sp, #12]
 294 009a 0A22     		movs	r2, #10
 295 009c 0292     		str	r2, [sp, #8]
 296 009e 4FF40072 		mov	r2, #512
 297 00a2 0192     		str	r2, [sp, #4]
 298 00a4 099A     		ldr	r2, [sp, #36]
 299 00a6 0092     		str	r2, [sp]
 300 00a8 134A     		ldr	r2, .L22+24
 301 00aa 1449     		ldr	r1, .L22+28
 302 00ac 1448     		ldr	r0, .L22+32
ARM GAS  /tmp/cctY73bu.s 			page 10


 303 00ae FFF7FEFF 		bl	_txe_thread_create
 304              	.LVL24:
 108:Src/app_threadx.c ****                        TX_APP_STACK_SIZE, THREAD_TWO_PRIO, THREAD_TWO_PREEMPTION_THRESHOLD,
 305              		.loc 1 108 6 discriminator 1 view .LVU56
 306 00b2 90B9     		cbnz	r0, .L19
 116:Src/app_threadx.c ****   {
 307              		.loc 1 116 3 is_stmt 1 view .LVU57
 116:Src/app_threadx.c ****   {
 308              		.loc 1 116 7 is_stmt 0 view .LVU58
 309 00b4 2422     		movs	r2, #36
 310 00b6 1349     		ldr	r1, .L22+36
 311 00b8 1348     		ldr	r0, .L22+40
 312 00ba FFF7FEFF 		bl	_txe_event_flags_create
 313              	.LVL25:
 116:Src/app_threadx.c ****   {
 314              		.loc 1 116 6 discriminator 1 view .LVU59
 315 00be 10B1     		cbz	r0, .L12
 118:Src/app_threadx.c ****   }
 316              		.loc 1 118 12 view .LVU60
 317 00c0 0620     		movs	r0, #6
 318 00c2 00E0     		b	.L12
 319              	.L14:
  74:Src/app_threadx.c ****   }
 320              		.loc 1 74 12 view .LVU61
 321 00c4 0220     		movs	r0, #2
 322              	.L12:
 123:Src/app_threadx.c **** /**
 323              		.loc 1 123 1 view .LVU62
 324 00c6 0AB0     		add	sp, sp, #40
 325              		.cfi_remember_state
 326              		.cfi_def_cfa_offset 8
 327              		@ sp needed
 328 00c8 10BD     		pop	{r4, pc}
 329              	.LVL26:
 330              	.L15:
 331              		.cfi_restore_state
  81:Src/app_threadx.c ****   }
 332              		.loc 1 81 12 view .LVU63
 333 00ca 0E20     		movs	r0, #14
 334 00cc FBE7     		b	.L12
 335              	.L16:
  89:Src/app_threadx.c ****   }
 336              		.loc 1 89 12 view .LVU64
 337 00ce 0220     		movs	r0, #2
 338 00d0 F9E7     		b	.L12
 339              	.L17:
  97:Src/app_threadx.c ****   }
 340              		.loc 1 97 12 view .LVU65
 341 00d2 0E20     		movs	r0, #14
 342 00d4 F7E7     		b	.L12
 343              	.L18:
 104:Src/app_threadx.c ****   }
 344              		.loc 1 104 12 view .LVU66
 345 00d6 0220     		movs	r0, #2
 346 00d8 F5E7     		b	.L12
 347              	.L19:
 112:Src/app_threadx.c ****   }
ARM GAS  /tmp/cctY73bu.s 			page 11


 348              		.loc 1 112 12 view .LVU67
 349 00da 0E20     		movs	r0, #14
 350 00dc F3E7     		b	.L12
 351              	.L23:
 352 00de 00BF     		.align	2
 353              	.L22:
 354 00e0 00000000 		.word	MainThread_Entry
 355 00e4 00000000 		.word	.LC1
 356 00e8 00000000 		.word	tx_app_thread
 357 00ec 00000000 		.word	ThreadOne_Entry
 358 00f0 0C000000 		.word	.LC2
 359 00f4 00000000 		.word	ThreadOne
 360 00f8 00000000 		.word	ThreadTwo_Entry
 361 00fc 18000000 		.word	.LC3
 362 0100 00000000 		.word	ThreadTwo
 363 0104 24000000 		.word	.LC4
 364 0108 00000000 		.word	EventFlag
 365              		.cfi_endproc
 366              	.LFE152:
 368              		.section	.text.MX_ThreadX_Init,"ax",%progbits
 369              		.align	1
 370              		.global	MX_ThreadX_Init
 371              		.syntax unified
 372              		.thumb
 373              		.thumb_func
 375              	MX_ThreadX_Init:
 376              	.LFB154:
 179:Src/app_threadx.c ****   }
 180:Src/app_threadx.c ****   /* USER CODE END MainThread_Entry */
 181:Src/app_threadx.c **** }
 182:Src/app_threadx.c **** 
 183:Src/app_threadx.c ****   /**
 184:Src/app_threadx.c ****   * @brief  Function that implements the kernel's initialization.
 185:Src/app_threadx.c ****   * @param  None
 186:Src/app_threadx.c ****   * @retval None
 187:Src/app_threadx.c ****   */
 188:Src/app_threadx.c **** void MX_ThreadX_Init(void)
 189:Src/app_threadx.c **** {
 377              		.loc 1 189 1 is_stmt 1 view -0
 378              		.cfi_startproc
 379              		@ args = 0, pretend = 0, frame = 0
 380              		@ frame_needed = 0, uses_anonymous_args = 0
 381 0000 08B5     		push	{r3, lr}
 382              		.cfi_def_cfa_offset 8
 383              		.cfi_offset 3, -8
 384              		.cfi_offset 14, -4
 190:Src/app_threadx.c ****   /* USER CODE BEGIN  Before_Kernel_Start */
 191:Src/app_threadx.c **** 
 192:Src/app_threadx.c ****   /* USER CODE END  Before_Kernel_Start */
 193:Src/app_threadx.c **** 
 194:Src/app_threadx.c ****   tx_kernel_enter();
 385              		.loc 1 194 3 view .LVU69
 386 0002 FFF7FEFF 		bl	_tx_initialize_kernel_enter
 387              	.LVL27:
 195:Src/app_threadx.c **** 
 196:Src/app_threadx.c ****   /* USER CODE BEGIN  Kernel_Start_Error */
 197:Src/app_threadx.c **** 
ARM GAS  /tmp/cctY73bu.s 			page 12


 198:Src/app_threadx.c ****   /* USER CODE END  Kernel_Start_Error */
 199:Src/app_threadx.c **** }
 388              		.loc 1 199 1 is_stmt 0 view .LVU70
 389 0006 08BD     		pop	{r3, pc}
 390              		.cfi_endproc
 391              	.LFE154:
 393              		.section	.text.App_Delay,"ax",%progbits
 394              		.align	1
 395              		.global	App_Delay
 396              		.syntax unified
 397              		.thumb
 398              		.thumb_func
 400              	App_Delay:
 401              	.LVL28:
 402              	.LFB157:
 200:Src/app_threadx.c **** 
 201:Src/app_threadx.c **** /* USER CODE BEGIN 1 */
 202:Src/app_threadx.c **** /**
 203:Src/app_threadx.c ****   * @brief  Function implementing the ThreadOne thread.
 204:Src/app_threadx.c ****   * @param  thread_input: Not used
 205:Src/app_threadx.c ****   * @retval None
 206:Src/app_threadx.c ****   */
 207:Src/app_threadx.c **** void ThreadOne_Entry(ULONG thread_input)
 208:Src/app_threadx.c **** {
 209:Src/app_threadx.c ****   (void) thread_input;
 210:Src/app_threadx.c ****   uint8_t count = 0;
 211:Src/app_threadx.c ****   /* Infinite loop */
 212:Src/app_threadx.c ****   while(1)
 213:Src/app_threadx.c ****   {
 214:Src/app_threadx.c ****     HAL_GPIO_TogglePin(LED1_GPIO_Port, LED1_Pin);
 215:Src/app_threadx.c ****     
 216:Src/app_threadx.c ****     /* Delay for 500ms (App_Delay is used to avoid context change). */
 217:Src/app_threadx.c ****     App_Delay(50);
 218:Src/app_threadx.c ****     count ++;
 219:Src/app_threadx.c ****     if (count == 10)
 220:Src/app_threadx.c ****     {
 221:Src/app_threadx.c ****       printf("%s\n", "ThreadOne: Signaling Event flag");
 222:Src/app_threadx.c ****       count = 0;
 223:Src/app_threadx.c ****       if (tx_event_flags_set(&EventFlag, THREAD_ONE_EVT, TX_OR) != TX_SUCCESS)
 224:Src/app_threadx.c ****       {
 225:Src/app_threadx.c ****         Error_Handler();
 226:Src/app_threadx.c ****       }
 227:Src/app_threadx.c ****     }
 228:Src/app_threadx.c ****   }
 229:Src/app_threadx.c **** }
 230:Src/app_threadx.c **** 
 231:Src/app_threadx.c **** /**
 232:Src/app_threadx.c ****   * @brief  Function implementing the ThreadTwo thread.
 233:Src/app_threadx.c ****   * @param  thread_input: Not used
 234:Src/app_threadx.c ****   * @retval None
 235:Src/app_threadx.c ****   */
 236:Src/app_threadx.c **** void ThreadTwo_Entry(ULONG thread_input)
 237:Src/app_threadx.c **** {
 238:Src/app_threadx.c ****   (void) thread_input;
 239:Src/app_threadx.c ****   uint8_t count = 0;
 240:Src/app_threadx.c ****   /* Infinite loop */
 241:Src/app_threadx.c ****   while (1)
ARM GAS  /tmp/cctY73bu.s 			page 13


 242:Src/app_threadx.c ****   {
 243:Src/app_threadx.c ****     HAL_GPIO_TogglePin(LED1_GPIO_Port, LED1_Pin);
 244:Src/app_threadx.c ****     /* Delay for 200ms (App_Delay is used to avoid context change). */
 245:Src/app_threadx.c ****     App_Delay(20);
 246:Src/app_threadx.c ****     count ++;
 247:Src/app_threadx.c ****     if (count == 25)
 248:Src/app_threadx.c ****     {
 249:Src/app_threadx.c ****       printf("%s\n", "ThreadTwo: Signaling Event flag");
 250:Src/app_threadx.c ****       count = 0;
 251:Src/app_threadx.c ****       if (tx_event_flags_set(&EventFlag, THREAD_TWO_EVT, TX_OR) != TX_SUCCESS)
 252:Src/app_threadx.c ****       {
 253:Src/app_threadx.c ****         Error_Handler();
 254:Src/app_threadx.c ****       }
 255:Src/app_threadx.c ****     }
 256:Src/app_threadx.c ****   }
 257:Src/app_threadx.c **** }
 258:Src/app_threadx.c **** 
 259:Src/app_threadx.c **** /**
 260:Src/app_threadx.c ****   * @brief  Application Delay function.
 261:Src/app_threadx.c ****   * @param  Delay : number of ticks to wait
 262:Src/app_threadx.c ****   * @retval None
 263:Src/app_threadx.c ****   */
 264:Src/app_threadx.c **** void App_Delay(uint32_t Delay)
 265:Src/app_threadx.c **** {
 403              		.loc 1 265 1 is_stmt 1 view -0
 404              		.cfi_startproc
 405              		@ args = 0, pretend = 0, frame = 0
 406              		@ frame_needed = 0, uses_anonymous_args = 0
 407              		.loc 1 265 1 is_stmt 0 view .LVU72
 408 0000 38B5     		push	{r3, r4, r5, lr}
 409              		.cfi_def_cfa_offset 16
 410              		.cfi_offset 3, -16
 411              		.cfi_offset 4, -12
 412              		.cfi_offset 5, -8
 413              		.cfi_offset 14, -4
 414 0002 0546     		mov	r5, r0
 266:Src/app_threadx.c ****   UINT initial_time = tx_time_get();
 415              		.loc 1 266 3 is_stmt 1 view .LVU73
 416              		.loc 1 266 23 is_stmt 0 view .LVU74
 417 0004 FFF7FEFF 		bl	_tx_time_get
 418              	.LVL29:
 419              		.loc 1 266 23 view .LVU75
 420 0008 0446     		mov	r4, r0
 421              	.LVL30:
 267:Src/app_threadx.c ****   while ((tx_time_get() - initial_time) < Delay);
 422              		.loc 1 267 3 is_stmt 1 view .LVU76
 423              	.L27:
 424              		.loc 1 267 41 discriminator 1 view .LVU77
 425              		.loc 1 267 11 is_stmt 0 discriminator 1 view .LVU78
 426 000a FFF7FEFF 		bl	_tx_time_get
 427              	.LVL31:
 428              		.loc 1 267 25 discriminator 1 view .LVU79
 429 000e 001B     		subs	r0, r0, r4
 430              		.loc 1 267 41 discriminator 1 view .LVU80
 431 0010 A842     		cmp	r0, r5
 432 0012 FAD3     		bcc	.L27
 268:Src/app_threadx.c **** }
ARM GAS  /tmp/cctY73bu.s 			page 14


 433              		.loc 1 268 1 view .LVU81
 434 0014 38BD     		pop	{r3, r4, r5, pc}
 435              		.loc 1 268 1 view .LVU82
 436              		.cfi_endproc
 437              	.LFE157:
 439              		.section	.rodata.ThreadOne_Entry.str1.4,"aMS",%progbits,1
 440              		.align	2
 441              	.LC5:
 442 0000 54687265 		.ascii	"ThreadOne: Signaling Event flag\000"
 442      61644F6E 
 442      653A2053 
 442      69676E61 
 442      6C696E67 
 443              		.section	.text.ThreadOne_Entry,"ax",%progbits
 444              		.align	1
 445              		.global	ThreadOne_Entry
 446              		.syntax unified
 447              		.thumb
 448              		.thumb_func
 450              	ThreadOne_Entry:
 451              	.LFB155:
 208:Src/app_threadx.c ****   (void) thread_input;
 452              		.loc 1 208 1 is_stmt 1 view -0
 453              		.cfi_startproc
 454              		@ args = 0, pretend = 0, frame = 0
 455              		@ frame_needed = 0, uses_anonymous_args = 0
 456              	.LVL32:
 208:Src/app_threadx.c ****   (void) thread_input;
 457              		.loc 1 208 1 is_stmt 0 view .LVU84
 458 0000 10B5     		push	{r4, lr}
 459              		.cfi_def_cfa_offset 8
 460              		.cfi_offset 4, -8
 461              		.cfi_offset 14, -4
 462              	.LVL33:
 463              	.L31:
 208:Src/app_threadx.c ****   (void) thread_input;
 464              		.loc 1 208 1 view .LVU85
 465 0002 0024     		movs	r4, #0
 466              	.L30:
 467              	.LVL34:
 212:Src/app_threadx.c ****   {
 468              		.loc 1 212 3 is_stmt 1 view .LVU86
 214:Src/app_threadx.c ****     
 469              		.loc 1 214 5 view .LVU87
 470 0004 0121     		movs	r1, #1
 471 0006 0B48     		ldr	r0, .L34
 472 0008 FFF7FEFF 		bl	HAL_GPIO_TogglePin
 473              	.LVL35:
 217:Src/app_threadx.c ****     count ++;
 474              		.loc 1 217 5 view .LVU88
 475 000c 3220     		movs	r0, #50
 476 000e FFF7FEFF 		bl	App_Delay
 477              	.LVL36:
 218:Src/app_threadx.c ****     if (count == 10)
 478              		.loc 1 218 5 view .LVU89
 218:Src/app_threadx.c ****     if (count == 10)
 479              		.loc 1 218 11 is_stmt 0 view .LVU90
ARM GAS  /tmp/cctY73bu.s 			page 15


 480 0012 0134     		adds	r4, r4, #1
 481              	.LVL37:
 218:Src/app_threadx.c ****     if (count == 10)
 482              		.loc 1 218 11 view .LVU91
 483 0014 E4B2     		uxtb	r4, r4
 484              	.LVL38:
 219:Src/app_threadx.c ****     {
 485              		.loc 1 219 5 is_stmt 1 view .LVU92
 219:Src/app_threadx.c ****     {
 486              		.loc 1 219 8 is_stmt 0 view .LVU93
 487 0016 0A2C     		cmp	r4, #10
 488 0018 F4D1     		bne	.L30
 489              	.LBB2:
 221:Src/app_threadx.c ****       count = 0;
 490              		.loc 1 221 7 is_stmt 1 view .LVU94
 491 001a 0748     		ldr	r0, .L34+4
 492 001c FFF7FEFF 		bl	puts
 493              	.LVL39:
 222:Src/app_threadx.c ****       if (tx_event_flags_set(&EventFlag, THREAD_ONE_EVT, TX_OR) != TX_SUCCESS)
 494              		.loc 1 222 7 view .LVU95
 223:Src/app_threadx.c ****       {
 495              		.loc 1 223 7 view .LVU96
 223:Src/app_threadx.c ****       {
 496              		.loc 1 223 11 is_stmt 0 view .LVU97
 497 0020 0022     		movs	r2, #0
 498 0022 0121     		movs	r1, #1
 499 0024 0548     		ldr	r0, .L34+8
 500 0026 FFF7FEFF 		bl	_txe_event_flags_set
 501              	.LVL40:
 223:Src/app_threadx.c ****       {
 502              		.loc 1 223 10 discriminator 1 view .LVU98
 503 002a 0028     		cmp	r0, #0
 504 002c E9D0     		beq	.L31
 225:Src/app_threadx.c ****       }
 505              		.loc 1 225 9 is_stmt 1 view .LVU99
 506 002e FFF7FEFF 		bl	Error_Handler
 507              	.LVL41:
 508 0032 E6E7     		b	.L31
 509              	.L35:
 510              		.align	2
 511              	.L34:
 512 0034 00040258 		.word	1476527104
 513 0038 00000000 		.word	.LC5
 514 003c 00000000 		.word	EventFlag
 515              	.LBE2:
 516              		.cfi_endproc
 517              	.LFE155:
 519              		.section	.rodata.ThreadTwo_Entry.str1.4,"aMS",%progbits,1
 520              		.align	2
 521              	.LC6:
 522 0000 54687265 		.ascii	"ThreadTwo: Signaling Event flag\000"
 522      61645477 
 522      6F3A2053 
 522      69676E61 
 522      6C696E67 
 523              		.section	.text.ThreadTwo_Entry,"ax",%progbits
 524              		.align	1
ARM GAS  /tmp/cctY73bu.s 			page 16


 525              		.global	ThreadTwo_Entry
 526              		.syntax unified
 527              		.thumb
 528              		.thumb_func
 530              	ThreadTwo_Entry:
 531              	.LFB156:
 237:Src/app_threadx.c ****   (void) thread_input;
 532              		.loc 1 237 1 view -0
 533              		.cfi_startproc
 534              		@ args = 0, pretend = 0, frame = 0
 535              		@ frame_needed = 0, uses_anonymous_args = 0
 536              	.LVL42:
 237:Src/app_threadx.c ****   (void) thread_input;
 537              		.loc 1 237 1 is_stmt 0 view .LVU101
 538 0000 10B5     		push	{r4, lr}
 539              		.cfi_def_cfa_offset 8
 540              		.cfi_offset 4, -8
 541              		.cfi_offset 14, -4
 542              	.LVL43:
 543              	.L38:
 237:Src/app_threadx.c ****   (void) thread_input;
 544              		.loc 1 237 1 view .LVU102
 545 0002 0024     		movs	r4, #0
 546              	.L37:
 547              	.LVL44:
 241:Src/app_threadx.c ****   {
 548              		.loc 1 241 3 is_stmt 1 view .LVU103
 243:Src/app_threadx.c ****     /* Delay for 200ms (App_Delay is used to avoid context change). */
 549              		.loc 1 243 5 view .LVU104
 550 0004 0121     		movs	r1, #1
 551 0006 0B48     		ldr	r0, .L41
 552 0008 FFF7FEFF 		bl	HAL_GPIO_TogglePin
 553              	.LVL45:
 245:Src/app_threadx.c ****     count ++;
 554              		.loc 1 245 5 view .LVU105
 555 000c 1420     		movs	r0, #20
 556 000e FFF7FEFF 		bl	App_Delay
 557              	.LVL46:
 246:Src/app_threadx.c ****     if (count == 25)
 558              		.loc 1 246 5 view .LVU106
 246:Src/app_threadx.c ****     if (count == 25)
 559              		.loc 1 246 11 is_stmt 0 view .LVU107
 560 0012 0134     		adds	r4, r4, #1
 561              	.LVL47:
 246:Src/app_threadx.c ****     if (count == 25)
 562              		.loc 1 246 11 view .LVU108
 563 0014 E4B2     		uxtb	r4, r4
 564              	.LVL48:
 247:Src/app_threadx.c ****     {
 565              		.loc 1 247 5 is_stmt 1 view .LVU109
 247:Src/app_threadx.c ****     {
 566              		.loc 1 247 8 is_stmt 0 view .LVU110
 567 0016 192C     		cmp	r4, #25
 568 0018 F4D1     		bne	.L37
 569              	.LBB3:
 249:Src/app_threadx.c ****       count = 0;
 570              		.loc 1 249 7 is_stmt 1 view .LVU111
ARM GAS  /tmp/cctY73bu.s 			page 17


 571 001a 0748     		ldr	r0, .L41+4
 572 001c FFF7FEFF 		bl	puts
 573              	.LVL49:
 250:Src/app_threadx.c ****       if (tx_event_flags_set(&EventFlag, THREAD_TWO_EVT, TX_OR) != TX_SUCCESS)
 574              		.loc 1 250 7 view .LVU112
 251:Src/app_threadx.c ****       {
 575              		.loc 1 251 7 view .LVU113
 251:Src/app_threadx.c ****       {
 576              		.loc 1 251 11 is_stmt 0 view .LVU114
 577 0020 0022     		movs	r2, #0
 578 0022 0221     		movs	r1, #2
 579 0024 0548     		ldr	r0, .L41+8
 580 0026 FFF7FEFF 		bl	_txe_event_flags_set
 581              	.LVL50:
 251:Src/app_threadx.c ****       {
 582              		.loc 1 251 10 discriminator 1 view .LVU115
 583 002a 0028     		cmp	r0, #0
 584 002c E9D0     		beq	.L38
 253:Src/app_threadx.c ****       }
 585              		.loc 1 253 9 is_stmt 1 view .LVU116
 586 002e FFF7FEFF 		bl	Error_Handler
 587              	.LVL51:
 588 0032 E6E7     		b	.L38
 589              	.L42:
 590              		.align	2
 591              	.L41:
 592 0034 00040258 		.word	1476527104
 593 0038 00000000 		.word	.LC6
 594 003c 00000000 		.word	EventFlag
 595              	.LBE3:
 596              		.cfi_endproc
 597              	.LFE156:
 599              		.global	EventFlag
 600              		.section	.bss.EventFlag,"aw",%nobits
 601              		.align	2
 604              	EventFlag:
 605 0000 00000000 		.space	36
 605      00000000 
 605      00000000 
 605      00000000 
 605      00000000 
 606              		.global	ThreadTwo
 607              		.section	.bss.ThreadTwo,"aw",%nobits
 608              		.align	2
 611              	ThreadTwo:
 612 0000 00000000 		.space	176
 612      00000000 
 612      00000000 
 612      00000000 
 612      00000000 
 613              		.global	ThreadOne
 614              		.section	.bss.ThreadOne,"aw",%nobits
 615              		.align	2
 618              	ThreadOne:
 619 0000 00000000 		.space	176
 619      00000000 
 619      00000000 
ARM GAS  /tmp/cctY73bu.s 			page 18


 619      00000000 
 619      00000000 
 620              		.global	tx_app_thread
 621              		.section	.bss.tx_app_thread,"aw",%nobits
 622              		.align	2
 625              	tx_app_thread:
 626 0000 00000000 		.space	176
 626      00000000 
 626      00000000 
 626      00000000 
 626      00000000 
 627              		.text
 628              	.Letext0:
 629              		.file 2 "/home/chris/.config/Code/User/globalStorage/bmd.stm32-for-vscode/@xpack-dev-tools/arm-non
 630              		.file 3 "Middlewares/ST/threadx/ports/cortex_m7/gnu/inc/tx_port.h"
 631              		.file 4 "Middlewares/ST/threadx/common/inc/tx_api.h"
 632              		.file 5 "/home/chris/.config/Code/User/globalStorage/bmd.stm32-for-vscode/@xpack-dev-tools/arm-non
 633              		.file 6 "Drivers/CMSIS/Device/ST/STM32H7xx/Include/stm32h723xx.h"
 634              		.file 7 "Inc/main.h"
 635              		.file 8 "Drivers/STM32H7xx_HAL_Driver/Inc/stm32h7xx_hal_gpio.h"
 636              		.file 9 "<built-in>"
ARM GAS  /tmp/cctY73bu.s 			page 19

